target datalayout = "e-m:e-p270:32:32-p271:32:32-p272:64:64-i64:64-i128:128-f80:128-n8:16:32:64-S128"
target triple = "x86_64-pc-linux-gnu"

%struct.filelist = type { i8, i8, ptr }
%struct.file = type { i32, i32, ptr, ptr }

; Function Attrs: nounwind uwtable
define internal void @up_irq_enable() #0 {
  call void asm sideeffect "sti", "~{memory},~{dirflag},~{fpsr},~{flags}"() #6, !srcloc !20
  ret void
}

; Function Attrs: nounwind uwtable
define internal zeroext i1 @up_irq_enabled(i64 noundef %0) #0 {
  %2 = alloca i64, align 8
  store i64 %0, ptr %2, align 8
  %3 = load i64, ptr %2, align 8
  %4 = and i64 %3, 512
  %5 = icmp ne i64 %4, 0
  ret i1 %5
}

; Function Attrs: nounwind uwtable
define internal void @up_irq_disable() #0 {
  call void asm sideeffect "cli", "~{memory},~{dirflag},~{fpsr},~{flags}"() #6, !srcloc !18
  ret void
}

; Function Attrs: nounwind uwtable
define internal i64 @irqflags() #0 {
  %1 = alloca i64, align 8
  call void asm sideeffect "\09pushfq\0A\09popq $0\0A", "=*rm,~{memory},~{dirflag},~{fpsr},~{flags}"(ptr elementtype(i64) %1) #6, !srcloc !19
  %2 = load i64, ptr %1, align 8
  ret i64 %2
}

; Function Attrs: nounwind uwtable
define internal void @up_irq_restore(i64 noundef %0) #0 {
  %2 = alloca i64, align 8
  store i64 %0, ptr %2, align 8
  %3 = load i64, ptr %2, align 8
  %4 = call zeroext i1 @up_irq_enabled(i64 noundef %3)
  br i1 %4, label %5, label %6

5:                                                ; preds = %1
  call void @up_irq_enable()
  br label %6

6:                                                ; preds = %5, %1
  ret void
}

; Function Attrs: nounwind uwtable
define internal i64 @up_irq_save() #0 {
  %1 = alloca i64, align 8
  %2 = call i64 @irqflags()
  store i64 %2, ptr %1, align 8
  call void @up_irq_disable()
  %3 = load i64, ptr %1, align 8
  ret i64 %3
}

; Function Attrs: nounwind uwtable
define internal ptr @files_fget_by_index(ptr noundef %0, i32 noundef %1, i32 noundef %2) #0 {
  %4 = alloca ptr, align 8
  %5 = alloca i32, align 4
  %6 = alloca i32, align 4
  %7 = alloca ptr, align 8
  %8 = alloca i64, align 8
  store ptr %0, ptr %4, align 8
  store i32 %1, ptr %5, align 4
  store i32 %2, ptr %6, align 4
  %9 = call i64 @up_irq_save()
  store i64 %9, ptr %8, align 8
  %10 = load ptr, ptr %4, align 8
  %11 = getelementptr inbounds %struct.filelist, ptr %10, i32 0, i32 2
  %12 = load ptr, ptr %11, align 8
  %13 = load i32, ptr %5, align 4
  %14 = sext i32 %13 to i64
  %15 = getelementptr inbounds ptr, ptr %12, i64 %14
  %16 = load ptr, ptr %15, align 8
  %17 = load i32, ptr %6, align 4
  %18 = sext i32 %17 to i64
  %19 = getelementptr inbounds %struct.file, ptr %16, i64 %18
  store ptr %19, ptr %7, align 8
  %20 = load i64, ptr %8, align 8
  call void @up_irq_restore(i64 noundef %20)
  %21 = load ptr, ptr %7, align 8
  ret ptr %21
}

; Function Attrs: nounwind uwtable
define ptr @files_fget(ptr noundef %0, i32 noundef %1) #0 {
  %3 = alloca ptr, align 8
  %4 = alloca i32, align 4
  store ptr %0, ptr %3, align 8
  store i32 %1, ptr %4, align 4
  %5 = load ptr, ptr %3, align 8
  %6 = load i32, ptr %4, align 4
  %7 = sdiv i32 %6, 8
  %8 = load i32, ptr %4, align 4
  %9 = srem i32 %8, 8
  %10 = call ptr @files_fget_by_index(ptr noundef %5, i32 noundef %7, i32 noundef %9)
  ret ptr %10
}

; Function Attrs: nounwind uwtable
define i32 @files_countlist(ptr noundef %0) #0 {
  %2 = alloca ptr, align 8
  store ptr %0, ptr %2, align 8
  %3 = load ptr, ptr %2, align 8
  %4 = getelementptr inbounds %struct.filelist, ptr %3, i32 0, i32 1
  %5 = load i8, ptr %4, align 1
  %6 = zext i8 %5 to i32
  %7 = mul nsw i32 %6, 8
  ret i32 %7
}

; Function Attrs: nounwind uwtable
define i32 @fs_getfilep(i32 noundef %0, ptr noundef %1) #0 {
  %3 = alloca i32, align 4
  %4 = alloca i32, align 4
  %5 = alloca ptr, align 8
  %6 = alloca ptr, align 8
  store i32 %0, ptr %4, align 4
  store ptr %1, ptr %5, align 8
  %7 = load ptr, ptr %5, align 8
  store ptr null, ptr %7, align 8
  %8 = call ptr @nxsched_get_files()
  store ptr %8, ptr %6, align 8
  %9 = load ptr, ptr %6, align 8
  %10 = icmp eq ptr %9, null
  br i1 %10, label %11, label %12

11:                                               ; preds = %2
  store i32 -11, ptr %3, align 4
  br label %34

12:                                               ; preds = %2
  %13 = load i32, ptr %4, align 4
  %14 = icmp slt i32 %13, 0
  br i1 %14, label %20, label %15

15:                                               ; preds = %12
  %16 = load i32, ptr %4, align 4
  %17 = load ptr, ptr %6, align 8
  %18 = call i32 @files_countlist(ptr noundef %17)
  %19 = icmp sge i32 %16, %18
  br i1 %19, label %20, label %21

20:                                               ; preds = %15, %12
  store i32 -9, ptr %3, align 4
  br label %34

21:                                               ; preds = %15
  %22 = load ptr, ptr %6, align 8
  %23 = load i32, ptr %4, align 4
  %24 = call ptr @files_fget(ptr noundef %22, i32 noundef %23)
  %25 = load ptr, ptr %5, align 8
  store ptr %24, ptr %25, align 8
  %26 = load ptr, ptr %5, align 8
  %27 = load ptr, ptr %26, align 8
  %28 = getelementptr inbounds %struct.file, ptr %27, i32 0, i32 2
  %29 = load ptr, ptr %28, align 8
  %30 = icmp eq ptr %29, null
  br i1 %30, label %31, label %33

31:                                               ; preds = %21
  %32 = load ptr, ptr %5, align 8
  store ptr null, ptr %32, align 8
  store i32 -9, ptr %3, align 4
  br label %34

33:                                               ; preds = %21
  store i32 0, ptr %3, align 4
  br label %34

34:                                               ; preds = %33, %31, %20, %11
  %35 = load i32, ptr %3, align 4
  ret i32 %35
}