; Function Attrs: nounwind uwtable
define range(i32 -11, 1) i32 @fs_getfilep(i32 noundef %0, ptr noundef writeonly captures(none) initializes((0, 8)) %1) local_unnamed_addr #1 {
  %3 = alloca i64, align 8
  store ptr null, ptr %1, align 8
  %4 = tail call ptr @nxsched_get_files() #10
  %5 = icmp eq ptr %4, null
  br i1 %5, label %28, label %6

6:                                                ; preds = %2
  %7 = icmp slt i32 %0, 0
  br i1 %7, label %28, label %8

8:                                                ; preds = %6
  %9 = getelementptr inbounds nuw i8, ptr %4, i64 1
  %10 = load i8, ptr %9, align 1
  %11 = zext i8 %10 to i32
  %12 = shl nuw nsw i32 %11, 3
  %.not = icmp samesign ult i32 %0, %12
  br i1 %.not, label %13, label %28

13:                                               ; preds = %8
  %14 = lshr i32 %0, 3
  call void @llvm.lifetime.start.p0(i64 8, ptr nonnull %3)
  call void asm sideeffect "\09pushfq\0A\09popq $0\0A", "=*rm,~{memory},~{dirflag},~{fpsr},~{flags}"(ptr nonnull elementtype(i64) %3) #10, !srcloc !9
  %15 = load i64, ptr %3, align 8
  call void @llvm.lifetime.end.p0(i64 8, ptr nonnull %3)
  call void asm sideeffect "cli", "~{memory},~{dirflag},~{fpsr},~{flags}"() #10, !srcloc !10
  %16 = getelementptr inbounds nuw i8, ptr %4, i64 8
  %17 = load ptr, ptr %16, align 8
  %18 = zext nneg i32 %14 to i64
  %19 = getelementptr inbounds nuw ptr, ptr %17, i64 %18
  %20 = load ptr, ptr %19, align 8
  %21 = and i64 %15, 512
  %.not.i.i.i = icmp eq i64 %21, 0
  br i1 %.not.i.i.i, label %files_fget.exit, label %22

22:                                               ; preds = %13
  call void asm sideeffect "sti", "~{memory},~{dirflag},~{fpsr},~{flags}"() #10, !srcloc !11
  br label %files_fget.exit

files_fget.exit:                                  ; preds = %13, %22
  %.zext13 = and i32 %0, 7
  %23 = zext nneg i32 %.zext13 to i64
  %24 = getelementptr inbounds nuw %struct.file, ptr %20, i64 %23
  store ptr %24, ptr %1, align 8
  %25 = getelementptr inbounds nuw i8, ptr %24, i64 8
  %26 = load ptr, ptr %25, align 8
  %27 = icmp eq ptr %26, null
  %spec.store.select = select i1 %27, ptr null, ptr %24
  store ptr %spec.store.select, ptr %1, align 8
  %spec.select = select i1 %27, i32 -9, i32 0
  br label %28

28:                                               ; preds = %files_fget.exit, %6, %8, %2
  %.0 = phi i32 [ -11, %2 ], [ -9, %8 ], [ -9, %6 ], [ %spec.select, %files_fget.exit ]
  ret i32 %.0
}